target datalayout = "e-m:e-p270:32:32-p271:32:32-p272:64:64-i64:64-i128:128-f80:128-n8:16:32:64-S128"
target triple = "x86_64-pc-linux-gnu"

%struct.redisServer = type { i32, i64, ptr, ptr, ptr, i32, i32, i32, i32, i32, ptr, ptr, ptr, ptr, ptr, i32, i32, i32, i32, i64, i32, i32, i32, i32, ptr, i32, i32, [41 x i8], i32, i64, i32, i32, i32, ptr, ptr, i32, i32, i64, ptr, ptr, ptr, ptr, [2 x i32], i32, i32, i32, i32, i32, i32, [16 x ptr], i32, ptr, ptr, i32, [8 x %struct.connListener], i32, %struct.connListener, ptr, ptr, ptr, ptr, ptr, ptr, ptr, ptr, ptr, ptr, i32, ptr, i32, ptr, [3 x %struct.pause_event], [256 x i8], ptr, i64, i32, i32, [128 x i32], i32, i32, i64, i32, i32, i32, i32, i32, i64, i64, i64, i64, i64, i64, i64, i64, i64, i64, double, i64, i64, i64, i64, i64, i64, i64, i64, i64, i64, i64, i64, i64, i64, i64, i64, i64, i64, i64, i64, i64, double, i64, i64, i64, i64, i64, ptr, i64, i64, i64, %struct.malloc_stats, i64, i64, i64, i64, i64, i64, i64, i64, i64, i64, i64, i64, double, [4 x i64], i64, i64, i64, i64, [128 x i64], [128 x i64], i64, i64, [7 x %struct.anon], i64, i64, i64, i64, i64, i64, [4 x %struct.durationStats], i32, i32, i32, i32, i32, i32, i32, i32, i32, i32, i32, i32, i64, i32, i32, i32, i32, i64, i64, i32, i32, i32, i32, i32, ptr, [3 x %struct.clientBufferLimitsConfig], i32, i32, i32, ptr, i32, i32, i32, i32, i32, i32, ptr, ptr, i32, i32, i64, i64, i64, i64, i64, i32, i32, ptr, i32, i32, i64, i64, i64, i64, i64, i32, i32, i64, i32, i32, i32, i32, i32, i32, i32, i32, ptr, i32, i64, i64, i64, i64, i32, ptr, i32, ptr, i32, i32, i32, i64, i64, i64, i64, i32, i32, i32, i32, i32, i32, ptr, i32, i32, ptr, i32, i32, i32, [2 x i32], i32, %struct.redisOpArray, i32, ptr, i32, ptr, i32, i32, i32, i32, i32, i32, i32, [41 x i8], [41 x i8], i64, i64, i64, i64, i32, i32, ptr, i64, i64, %struct.replDataBuf, i64, i64, i32, i32, i32, i32, i32, i32, i32, i32, i32, i64, ptr, i64, ptr, ptr, ptr, i32, i32, ptr, ptr, i32, i32, i32, i64, i64, i64, i64, ptr, ptr, i32, ptr, i64, i32, i32, i32, i64, i32, i32, i32, i32, ptr, i32, i32, [41 x i8], i64, i32, ptr, i32, i32, i64, i64, i32, i32, i32, i32, i32, i64, [3 x i32], i32, i32, i32, [10 x i32], ptr, ptr, i32, i64, ptr, ptr, i32, i32, i32, i32, i64, i64, i64, i64, i64, i64, i64, i64, i64, i64, i32, i32, i64, i64, i32, i64, i64, i64, i64, i64, ptr, ptr, i32, ptr, i32, i32, i32, i32, i64, i64, ptr, ptr, i32, i32, i32, i32, i32, ptr, ptr, ptr, i32, i32, i32, i32, i32, i32, i32, i64, i32, i32, i64, i32, i32, i32, i32, i32, i32, i32, i64, ptr, ptr, i64, ptr, i32, %struct.aclInfo, i32, i64, i32, i32, i32, %struct.redisTLSContextConfig, ptr, ptr, ptr, ptr, ptr, i64, i32, ptr, i32, i32, i32, i64, i32, ptr }
%struct.connListener = type { [16 x i32], i32, ptr, i32, i32, ptr, ptr }
%struct.pause_event = type { i32, i64 }
%struct.malloc_stats = type { i64, i64, i64, i64, i64, i64, i64, i64, i64, i64, i64 }
%struct.anon = type { i64, i64, [16 x i64], i32 }
%struct.durationStats = type { i64, i64, i64 }
%struct.clientBufferLimitsConfig = type { i64, i64, i64 }
%struct.redisOpArray = type { ptr, i32, i32 }
%struct.replDataBuf = type { ptr, i64, i64, i64, i64 }
%struct.aclInfo = type { i64, i64, i64, i64 }
%struct.redisTLSContextConfig = type { ptr, ptr, ptr, ptr, ptr, ptr, ptr, ptr, ptr, ptr, ptr, ptr, i32, i32, i32, i32 }
%struct.latencyTimeSeries = type { i32, i32, [160 x %struct.latencySample] }
%struct.latencySample = type { i32, i32 }
%struct.dict = type { ptr, [2 x ptr], [2 x i64], i64, i16, [2 x i8], i16, [0 x ptr] }

@server = external global %struct.redisServer, align 8

; Function Attrs: nounwind uwtable
define dso_local void @latencyCommandReplyWithLatestEvents(ptr noundef %0) #0 {
  %2 = alloca ptr, align 8
  %3 = alloca ptr, align 8
  %4 = alloca ptr, align 8
  %5 = alloca ptr, align 8
  %6 = alloca ptr, align 8
  %7 = alloca i32, align 4
  store ptr %0, ptr %2, align 8, !tbaa !77
  call void @llvm.lifetime.start.p0(i64 8, ptr %3) #10
  call void @llvm.lifetime.start.p0(i64 8, ptr %4) #10
  %8 = load ptr, ptr %2, align 8, !tbaa !77
  %9 = load ptr, ptr getelementptr inbounds nuw (%struct.redisServer, ptr @server, i32 0, i32 413), align 8, !tbaa !11
  %10 = getelementptr inbounds nuw %struct.dict, ptr %9, i32 0, i32 2
  %11 = getelementptr inbounds [2 x i64], ptr %10, i64 0, i64 0
  %12 = load i64, ptr %11, align 8, !tbaa !44
  %13 = load ptr, ptr getelementptr inbounds nuw (%struct.redisServer, ptr @server, i32 0, i32 413), align 8, !tbaa !11
  %14 = getelementptr inbounds nuw %struct.dict, ptr %13, i32 0, i32 2
  %15 = getelementptr inbounds [2 x i64], ptr %14, i64 0, i64 1
  %16 = load i64, ptr %15, align 8, !tbaa !44
  %17 = add i64 %12, %16
  call void @addReplyArrayLen(ptr noundef %8, i64 noundef %17)
  %18 = load ptr, ptr getelementptr inbounds nuw (%struct.redisServer, ptr @server, i32 0, i32 413), align 8, !tbaa !11
  %19 = call ptr @dictGetIterator(ptr noundef %18)
  store ptr %19, ptr %3, align 8, !tbaa !52
  br label %20

20:                                               ; preds = %24, %1
  %21 = load ptr, ptr %3, align 8, !tbaa !52
  %22 = call ptr @dictNext(ptr noundef %21)
  store ptr %22, ptr %4, align 8, !tbaa !54
  %23 = icmp ne ptr %22, null
  br i1 %23, label %24, label %61

24:                                               ; preds = %20
  call void @llvm.lifetime.start.p0(i64 8, ptr %5) #10
  %25 = load ptr, ptr %4, align 8, !tbaa !54
  %26 = call ptr @dictGetKey(ptr noundef %25)
  store ptr %26, ptr %5, align 8, !tbaa !40
  call void @llvm.lifetime.start.p0(i64 8, ptr %6) #10
  %27 = load ptr, ptr %4, align 8, !tbaa !54
  %28 = call ptr @dictGetVal(ptr noundef %27)
  store ptr %28, ptr %6, align 8, !tbaa !42
  call void @llvm.lifetime.start.p0(i64 4, ptr %7) #10
  %29 = load ptr, ptr %6, align 8, !tbaa !42
  %30 = getelementptr inbounds nuw %struct.latencyTimeSeries, ptr %29, i32 0, i32 0
  %31 = load i32, ptr %30, align 4, !tbaa !45
  %32 = add nsw i32 %31, 160
  %33 = sub nsw i32 %32, 1
  %34 = srem i32 %33, 160
  store i32 %34, ptr %7, align 4, !tbaa !48
  %35 = load ptr, ptr %2, align 8, !tbaa !77
  call void @addReplyArrayLen(ptr noundef %35, i64 noundef 4)
  %36 = load ptr, ptr %2, align 8, !tbaa !77
  %37 = load ptr, ptr %5, align 8, !tbaa !40
  call void @addReplyBulkCString(ptr noundef %36, ptr noundef %37)
  %38 = load ptr, ptr %2, align 8, !tbaa !77
  %39 = load ptr, ptr %6, align 8, !tbaa !42
  %40 = getelementptr inbounds nuw %struct.latencyTimeSeries, ptr %39, i32 0, i32 2
  %41 = load i32, ptr %7, align 4, !tbaa !48
  %42 = sext i32 %41 to i64
  %43 = getelementptr inbounds [160 x %struct.latencySample], ptr %40, i64 0, i64 %42
  %44 = getelementptr inbounds nuw %struct.latencySample, ptr %43, i32 0, i32 0
  %45 = load i32, ptr %44, align 4, !tbaa !49
  %46 = sext i32 %45 to i64
  call void @addReplyLongLong(ptr noundef %38, i64 noundef %46)
  %47 = load ptr, ptr %2, align 8, !tbaa !77
  %48 = load ptr, ptr %6, align 8, !tbaa !42
  %49 = getelementptr inbounds nuw %struct.latencyTimeSeries, ptr %48, i32 0, i32 2
  %50 = load i32, ptr %7, align 4, !tbaa !48
  %51 = sext i32 %50 to i64
  %52 = getelementptr inbounds [160 x %struct.latencySample], ptr %49, i64 0, i64 %51
  %53 = getelementptr inbounds nuw %struct.latencySample, ptr %52, i32 0, i32 1
  %54 = load i32, ptr %53, align 4, !tbaa !51
  %55 = zext i32 %54 to i64
  call void @addReplyLongLong(ptr noundef %47, i64 noundef %55)
  %56 = load ptr, ptr %2, align 8, !tbaa !77
  %57 = load ptr, ptr %6, align 8, !tbaa !42
  %58 = getelementptr inbounds nuw %struct.latencyTimeSeries, ptr %57, i32 0, i32 1
  %59 = load i32, ptr %58, align 4, !tbaa !47
  %60 = zext i32 %59 to i64
  call void @addReplyLongLong(ptr noundef %56, i64 noundef %60)
  call void @llvm.lifetime.end.p0(i64 4, ptr %7) #10
  call void @llvm.lifetime.end.p0(i64 8, ptr %6) #10
  call void @llvm.lifetime.end.p0(i64 8, ptr %5) #10
  br label %20, !llvm.loop !119

61:                                               ; preds = %20
  %62 = load ptr, ptr %3, align 8, !tbaa !52
  call void @dictReleaseIterator(ptr noundef %62)
  call void @llvm.lifetime.end.p0(i64 8, ptr %4) #10
  call void @llvm.lifetime.end.p0(i64 8, ptr %3) #10
  ret void
}