; Function Attrs: nounwind uwtable
define dso_local void @latencyCommandReplyWithLatestEvents(ptr noundef %0) local_unnamed_addr #2 {
  %2 = load ptr, ptr getelementptr inbounds nuw (i8, ptr @server, i64 8072), align 8, !tbaa !5
  %3 = getelementptr inbounds nuw i8, ptr %2, i64 24
  %4 = load i64, ptr %3, align 8, !tbaa !56
  %5 = getelementptr inbounds nuw i8, ptr %2, i64 32
  %6 = load i64, ptr %5, align 8, !tbaa !56
  %7 = add i64 %6, %4
  tail call void @addReplyArrayLen(ptr noundef %0, i64 noundef %7) #14
  %8 = load ptr, ptr getelementptr inbounds nuw (i8, ptr @server, i64 8072), align 8, !tbaa !5
  %9 = tail call ptr @dictGetIterator(ptr noundef %8) #14
  %10 = tail call ptr @dictNext(ptr noundef %9) #14
  %.not16 = icmp eq ptr %10, null
  br i1 %.not16, label %._crit_edge, label %.lr.ph

.lr.ph:                                           ; preds = %1, %.lr.ph
  %11 = phi ptr [ %28, %.lr.ph ], [ %10, %1 ]
  %12 = tail call ptr @dictGetKey(ptr noundef nonnull %11) #14
  %13 = tail call ptr @dictGetVal(ptr noundef nonnull %11) #14
  %14 = load i32, ptr %13, align 4, !tbaa !40
  %15 = add nsw i32 %14, 159
  %16 = srem i32 %15, 160
  tail call void @addReplyArrayLen(ptr noundef %0, i64 noundef 4) #14
  tail call void @addReplyBulkCString(ptr noundef %0, ptr noundef %12) #14
  %17 = getelementptr inbounds nuw i8, ptr %13, i64 8
  %18 = sext i32 %16 to i64
  %19 = getelementptr inbounds [160 x %struct.latencySample], ptr %17, i64 0, i64 %18
  %20 = load i32, ptr %19, align 4, !tbaa !41
  %21 = sext i32 %20 to i64
  tail call void @addReplyLongLong(ptr noundef %0, i64 noundef %21) #14
  %22 = getelementptr inbounds nuw i8, ptr %19, i64 4
  %23 = load i32, ptr %22, align 4, !tbaa !43
  %24 = zext i32 %23 to i64
  tail call void @addReplyLongLong(ptr noundef %0, i64 noundef %24) #14
  %25 = getelementptr inbounds nuw i8, ptr %13, i64 4
  %26 = load i32, ptr %25, align 4, !tbaa !38
  %27 = zext i32 %26 to i64
  tail call void @addReplyLongLong(ptr noundef %0, i64 noundef %27) #14
  %28 = tail call ptr @dictNext(ptr noundef %9) #14
  %.not = icmp eq ptr %28, null
  br i1 %.not, label %._crit_edge, label %.lr.ph, !llvm.loop !100

._crit_edge:                                      ; preds = %.lr.ph, %1
  tail call void @dictReleaseIterator(ptr noundef %9) #14
  ret void
}